; Function Attrs: mustprogress uwtable
define internal void @"_ZNSt17_Function_handlerIFvvEZN3gmx12ForceElement22registerDomDecCallbackEvE3$_0E9_M_invokeERKSt9_Any_data"(ptr nocapture noundef nonnull readonly align 8 dereferenceable(16) %0) #0 align 2 {
  %.val = load ptr, ptr %0, align 8
  %2 = getelementptr i8, ptr %.val, i64 152
  %.val.val = load ptr, ptr %2, align 8
  %3 = getelementptr i8, ptr %.val, i64 224
  %.val.val1 = load ptr, ptr %3, align 8
  %.val.val1.val = load ptr, ptr %.val.val1, align 8
  tail call void @_ZN24CpuPpLongRangeNonbondeds20updateAfterPartitionERK9t_mdatoms(ptr noundef nonnull align 8 dereferenceable(216) %.val.val, ptr noundef nonnull align 8 dereferenceable(648) %.val.val1.val)
  ret void
}